target datalayout = "e-m:e-p270:32:32-p271:32:32-p272:64:64-i64:64-i128:128-f80:128-n8:16:32:64-S128"
target triple = "x86_64-pc-linux-gnu"

@resv_list = dso_local global ptr null, align 8
@top_suffix = dso_local global i32 0, align 4
@.str.131 = private unnamed_addr constant [64 x i8] c"%s: Too many reservations in the system, can't create any more.\00", align 1
@__func__._generate_resv_id = private unnamed_addr constant [18 x i8] c"_generate_resv_id\00", align 1

; Function Attrs: nounwind uwtable
define internal i32 @_generate_resv_id() #0 {
  %1 = alloca i32, align 4
  %2 = alloca i32, align 4
  %3 = alloca i32, align 4
  call void @llvm.lifetime.start.p0(i64 4, ptr %2) #10
  store i32 0, ptr %2, align 4
  br label %4

4:                                                ; preds = %20, %0
  %5 = load i32, ptr %2, align 4
  %6 = icmp slt i32 %5, 9999
  br i1 %6, label %7, label %23

7:                                                ; preds = %4
  %8 = load i32, ptr @top_suffix, align 4
  %9 = icmp uge i32 %8, 9999
  br i1 %9, label %10, label %11

10:                                               ; preds = %7
  store i32 1, ptr @top_suffix, align 4
  br label %14

11:                                               ; preds = %7
  %12 = load i32, ptr @top_suffix, align 4
  %13 = add i32 %12, 1
  store i32 %13, ptr @top_suffix, align 4
  br label %14

14:                                               ; preds = %11, %10
  %15 = load ptr, ptr @resv_list, align 8
  %16 = call ptr @list_find_first(ptr noundef %15, ptr noundef @_find_resv_id, ptr noundef @top_suffix)
  %17 = icmp ne ptr %16, null
  br i1 %17, label %19, label %18

18:                                               ; preds = %14
  store i32 0, ptr %1, align 4
  store i32 1, ptr %3, align 4
  br label %25

19:                                               ; preds = %14
  br label %20

20:                                               ; preds = %19
  %21 = load i32, ptr %2, align 4
  %22 = add nsw i32 %21, 1
  store i32 %22, ptr %2, align 4
  br label %4, !llvm.loop !25

23:                                               ; preds = %4
  %24 = call i32 (ptr, ...) @error(ptr noundef @.str.131, ptr noundef @__func__._generate_resv_id)
  store i32 2053, ptr %1, align 4
  store i32 1, ptr %3, align 4
  br label %25

25:                                               ; preds = %23, %18
  call void @llvm.lifetime.end.p0(i64 4, ptr %2) #10
  %26 = load i32, ptr %1, align 4
  ret i32 %26
}