; Function Attrs: nounwind uwtable
define internal fastcc range(i32 0, 2054) i32 @_generate_resv_id() unnamed_addr #0 {
  br label %3

1:                                                ; preds = %3
  %2 = add nuw nsw i32 %.05, 1
  %exitcond.not = icmp eq i32 %2, 9999
  br i1 %exitcond.not, label %9, label %3, !llvm.loop !26

3:                                                ; preds = %0, %1
  %.05 = phi i32 [ 0, %0 ], [ %2, %1 ]
  %4 = load i32, ptr @top_suffix, align 4
  %5 = icmp ugt i32 %4, 9998
  %6 = add nuw nsw i32 %4, 1
  %storemerge = select i1 %5, i32 1, i32 %6
  store i32 %storemerge, ptr @top_suffix, align 4
  %7 = load ptr, ptr @resv_list, align 8
  %8 = tail call ptr @list_find_first(ptr noundef %7, ptr noundef nonnull @_find_resv_id, ptr noundef nonnull @top_suffix) #19
  %.not = icmp eq ptr %8, null
  br i1 %.not, label %.loopexit, label %1

9:                                                ; preds = %1
  %10 = tail call i32 (ptr, ...) @error(ptr noundef nonnull @.str.131, ptr noundef nonnull @__func__._generate_resv_id) #19
  br label %.loopexit

.loopexit:                                        ; preds = %3, %9
  %.03 = phi i32 [ 2053, %9 ], [ 0, %3 ]
  ret i32 %.03
}